

Microchip MPLAB XC8 Assembler V2.20 build 20200408173844 
                                                                                               Sat Jul 11 08:26:07 2020

Microchip MPLAB XC8 C Compiler v2.20 (Free license) build 20200408173844 Og1 
     1                           	processor	16F877A
     2                           	pagewidth 120
     3                           	opt	flic
     4                           	psect	cinit,global,class=CODE,merge=1,delta=2
     5                           	psect	bssCOMMON,global,class=COMMON,space=1,delta=1,noexec
     6                           	psect	bssBANK0,global,class=BANK0,space=1,delta=1,noexec
     7                           	psect	cstackCOMMON,global,class=COMMON,space=1,delta=1,noexec
     8                           	psect	cstackBANK0,global,class=BANK0,space=1,delta=1,noexec
     9                           	psect	maintext,global,class=CODE,split=1,delta=2
    10                           	psect	text1,local,class=CODE,merge=1,delta=2
    11                           	psect	text2,local,class=CODE,merge=1,delta=2
    12                           	psect	text3,local,class=CODE,merge=1,delta=2
    13                           	psect	text4,local,class=CODE,merge=1,delta=2
    14                           	psect	text5,local,class=CODE,merge=1,delta=2,group=1
    15                           	psect	text6,local,class=CODE,merge=1,delta=2
    16                           	psect	text7,local,class=CODE,merge=1,delta=2
    17                           	psect	text8,local,class=CODE,merge=1,delta=2
    18                           	psect	intentry,global,class=CODE,delta=2
    19                           	psect	text9,local,class=CODE,merge=1,delta=2
    20                           	psect	text10,local,class=CODE,merge=1,delta=2
    21                           	psect	text11,local,class=CODE,merge=1,delta=2
    22                           	psect	text12,local,class=CODE,merge=1,delta=2
    23                           	psect	text13,local,class=CODE,merge=1,delta=2
    24                           	psect	functab,global,class=ENTRY,delta=2
    25                           	dabs	1,0x7E,2
    26  0000                     
    27                           ; Version 2.20
    28                           ; Generated 12/02/2020 GMT
    29                           ; 
    30                           ; Copyright © 2020, Microchip Technology Inc. and its subsidiaries ("Microchip")
    31                           ; All rights reserved.
    32                           ; 
    33                           ; This software is developed by Microchip Technology Inc. and its subsidiaries ("Microch
      +                          ip").
    34                           ; 
    35                           ; Redistribution and use in source and binary forms, with or without modification, are
    36                           ; permitted provided that the following conditions are met:
    37                           ; 
    38                           ;     1. Redistributions of source code must retain the above copyright notice, this lis
      +                          t of
    39                           ;        conditions and the following disclaimer.
    40                           ; 
    41                           ;     2. Redistributions in binary form must reproduce the above copyright notice, this 
      +                          list
    42                           ;        of conditions and the following disclaimer in the documentation and/or other
    43                           ;        materials provided with the distribution.
    44                           ; 
    45                           ;     3. Microchip's name may not be used to endorse or promote products derived from th
      +                          is
    46                           ;        software without specific prior written permission.
    47                           ; 
    48                           ; THIS SOFTWARE IS PROVIDED BY MICROCHIP "AS IS" AND ANY EXPRESS OR IMPLIED WARRANTIES,
    49                           ; INCLUDING, BUT NOT LIMITED TO, THE IMPLIED WARRANTIES OF MERCHANTABILITY AND FITNESS F
      +                          OR
    50                           ; PURPOSE ARE DISCLAIMED.  IN NO EVENT SHALL MICROCHIP BE LIABLE FOR ANY DIRECT, INDIREC
      +                          T,
    51                           ; INCIDENTAL, SPECIAL, EXEMPLARY, OR CONSEQUENTIAL DAMAGES (INCLUDING BUT NOT LIMITED TO
    52                           ; PROCUREMENT OF SUBSTITUTE GOODS OR SERVICES; LOSS OF USE, DATA OR PROFITS; OR BUSINESS
    53                           ; INTERRUPTION) HOWSOEVER CAUSED AND ON ANY THEORY OF LIABILITY, WHETHER IN CONTRACT, ST
      +                          RICT
    54                           ; LIABILITY, OR TORT (INCLUDING NEGLIGENCE OR OTHERWISE) ARISING IN ANY WAY OUT OF THE U
      +                          SE OF
    55                           ; THIS SOFTWARE, EVEN IF ADVISED OF THE POSSIBILITY OF SUCH DAMAGE.
    56                           ; 
    57                           ; 
    58                           ; Code-generator required, PIC16F877A Definitions
    59                           ; 
    60                           ; SFR Addresses
    61  0000                     	;# 
    62  0001                     	;# 
    63  0002                     	;# 
    64  0003                     	;# 
    65  0004                     	;# 
    66  0005                     	;# 
    67  0006                     	;# 
    68  0007                     	;# 
    69  0008                     	;# 
    70  0009                     	;# 
    71  000A                     	;# 
    72  000B                     	;# 
    73  000C                     	;# 
    74  000D                     	;# 
    75  000E                     	;# 
    76  000E                     	;# 
    77  000F                     	;# 
    78  0010                     	;# 
    79  0011                     	;# 
    80  0012                     	;# 
    81  0013                     	;# 
    82  0014                     	;# 
    83  0015                     	;# 
    84  0015                     	;# 
    85  0016                     	;# 
    86  0017                     	;# 
    87  0018                     	;# 
    88  0019                     	;# 
    89  001A                     	;# 
    90  001B                     	;# 
    91  001B                     	;# 
    92  001C                     	;# 
    93  001D                     	;# 
    94  001E                     	;# 
    95  001F                     	;# 
    96  0081                     	;# 
    97  0085                     	;# 
    98  0086                     	;# 
    99  0087                     	;# 
   100  0088                     	;# 
   101  0089                     	;# 
   102  008C                     	;# 
   103  008D                     	;# 
   104  008E                     	;# 
   105  0091                     	;# 
   106  0092                     	;# 
   107  0093                     	;# 
   108  0094                     	;# 
   109  0098                     	;# 
   110  0099                     	;# 
   111  009C                     	;# 
   112  009D                     	;# 
   113  009E                     	;# 
   114  009F                     	;# 
   115  010C                     	;# 
   116  010D                     	;# 
   117  010E                     	;# 
   118  010F                     	;# 
   119  018C                     	;# 
   120  018D                     	;# 
   121                           
   122                           	psect	cinit
   123  0015                     start_initialization:	
   124                           ; #config settings
   125                           
   126  0015                     __initialization:
   127                           
   128                           ; Clear objects allocated to COMMON
   129  0015  01FD               	clrf	__pbssCOMMON& (0+127)
   130                           
   131                           ; Clear objects allocated to BANK0
   132  0016  1283               	bcf	3,5	;RP0=0, select bank0
   133  0017  1303               	bcf	3,6	;RP1=0, select bank0
   134  0018  01A0               	clrf	__pbssBANK0& (0+127)
   135  0019  01A1               	clrf	(__pbssBANK0+1)& (0+127)
   136  001A  01A2               	clrf	(__pbssBANK0+2)& (0+127)
   137  001B  01A3               	clrf	(__pbssBANK0+3)& (0+127)
   138  001C  01A4               	clrf	(__pbssBANK0+4)& (0+127)
   139  001D  01A5               	clrf	(__pbssBANK0+5)& (0+127)
   140  001E  01A6               	clrf	(__pbssBANK0+6)& (0+127)
   141  001F  01A7               	clrf	(__pbssBANK0+7)& (0+127)
   142  0020  01A8               	clrf	(__pbssBANK0+8)& (0+127)
   143  0021  01A9               	clrf	(__pbssBANK0+9)& (0+127)
   144  0022  01AA               	clrf	(__pbssBANK0+10)& (0+127)
   145  0023  01AB               	clrf	(__pbssBANK0+11)& (0+127)
   146  0024  01AC               	clrf	(__pbssBANK0+12)& (0+127)
   147  0025  01AD               	clrf	(__pbssBANK0+13)& (0+127)
   148  0026  01AE               	clrf	(__pbssBANK0+14)& (0+127)
   149  0027                     end_of_initialization:	
   150                           ;End of C runtime variable initialization code
   151                           
   152  0027                     __end_of__initialization:
   153  0027  0183               	clrf	3
   154  0028  120A  118A  2984   	ljmp	_main	;jump to C main() function
   155                           
   156                           	psect	bssCOMMON
   157  007D                     __pbssCOMMON:
   158  007D                     _Global_pFn:
   159  007D                     	ds	1
   160                           
   161                           	psect	bssBANK0
   162  0020                     __pbssBANK0:
   163  0020                     _Tasks:
   164  0020                     	ds	15
   165                           
   166                           	psect	cstackCOMMON
   167  0070                     __pcstackCOMMON:
   168  0070                     ?_RTO_vid_StartSchedular:
   169  0070                     ?_vid_SystemInit:	
   170                           ; 1 bytes @ 0x0
   171                           
   172  0070                     ?_RedLed_TOG:	
   173                           ; 1 bytes @ 0x0
   174                           
   175  0070                     ??_RedLed_TOG:	
   176                           ; 1 bytes @ 0x0
   177                           
   178  0070                     ?_GreenLed_TOG:	
   179                           ; 1 bytes @ 0x0
   180                           
   181  0070                     ??_GreenLed_TOG:	
   182                           ; 1 bytes @ 0x0
   183                           
   184  0070                     ?_YellowLed_TOG:	
   185                           ; 1 bytes @ 0x0
   186                           
   187  0070                     ??_YellowLed_TOG:	
   188                           ; 1 bytes @ 0x0
   189                           
   190  0070                     ?_Timer1_Init_Comp:	
   191                           ; 1 bytes @ 0x0
   192                           
   193  0070                     ?_Timer_SetCallBack:	
   194                           ; 1 bytes @ 0x0
   195                           
   196  0070                     ?_ISR:	
   197                           ; 1 bytes @ 0x0
   198                           
   199  0070                     ?_RTO_Init:	
   200                           ; 1 bytes @ 0x0
   201                           
   202  0070                     ?i1___bmul:	
   203                           ; 1 bytes @ 0x0
   204                           
   205  0070                     ?_main:	
   206                           ; 1 bytes @ 0x0
   207                           
   208  0070                     i1___bmul@multiplicand:	
   209                           ; 2 bytes @ 0x0
   210                           
   211                           
   212                           ; 1 bytes @ 0x0
   213  0070                     	ds	1
   214  0071                     ??i1___bmul:
   215  0071                     i1___bmul@product:	
   216                           ; 1 bytes @ 0x1
   217                           
   218                           
   219                           ; 1 bytes @ 0x1
   220  0071                     	ds	1
   221  0072                     i1___bmul@multiplier:
   222                           
   223                           ; 1 bytes @ 0x2
   224  0072                     	ds	1
   225  0073                     ??_RTO_vid_StartSchedular:
   226                           
   227                           ; 1 bytes @ 0x3
   228  0073                     	ds	4
   229  0077                     RTO_vid_StartSchedular@u8_TCB_Counter:
   230                           
   231                           ; 1 bytes @ 0x7
   232  0077                     	ds	1
   233  0078                     ??_ISR:
   234                           
   235                           ; 1 bytes @ 0x8
   236  0078                     	ds	5
   237                           
   238                           	psect	cstackBANK0
   239  002F                     __pcstackBANK0:
   240  002F                     ?_DIO_SetPinDirection:
   241  002F                     ??_Timer1_Init_Comp:	
   242                           ; 1 bytes @ 0x0
   243                           
   244  002F                     ??_Timer_SetCallBack:	
   245                           ; 1 bytes @ 0x0
   246                           
   247  002F                     ?___bmul:	
   248                           ; 1 bytes @ 0x0
   249                           
   250  002F                     DIO_SetPinDirection@u8PinIdCopy:	
   251                           ; 1 bytes @ 0x0
   252                           
   253  002F                     Timer_SetCallBack@local_pFn:	
   254                           ; 1 bytes @ 0x0
   255                           
   256  002F                     ___bmul@multiplicand:	
   257                           ; 1 bytes @ 0x0
   258                           
   259                           
   260                           ; 1 bytes @ 0x0
   261  002F                     	ds	1
   262  0030                     ??_RTO_Init:
   263  0030                     ??___bmul:	
   264                           ; 1 bytes @ 0x1
   265                           
   266  0030                     DIO_SetPinDirection@u8PinDirCopy:	
   267                           ; 1 bytes @ 0x1
   268                           
   269  0030                     ___bmul@product:	
   270                           ; 1 bytes @ 0x1
   271                           
   272                           
   273                           ; 1 bytes @ 0x1
   274  0030                     	ds	1
   275  0031                     ??_DIO_SetPinDirection:
   276  0031                     ___bmul@multiplier:	
   277                           ; 1 bytes @ 0x2
   278                           
   279                           
   280                           ; 1 bytes @ 0x2
   281  0031                     	ds	1
   282  0032                     ?_RTO_vid_CreateTask:
   283  0032                     RTO_vid_CreateTask@copy_u16Priodicity:	
   284                           ; 1 bytes @ 0x3
   285                           
   286                           
   287                           ; 2 bytes @ 0x3
   288  0032                     	ds	1
   289  0033                     DIO_SetPinDirection@u8PortIdCopy:
   290                           
   291                           ; 1 bytes @ 0x4
   292  0033                     	ds	1
   293  0034                     ??_vid_SystemInit:
   294  0034                     RTO_vid_CreateTask@copy_u16FirstDelay:	
   295                           ; 1 bytes @ 0x5
   296                           
   297                           
   298                           ; 2 bytes @ 0x5
   299  0034                     	ds	2
   300  0036                     RTO_vid_CreateTask@copy_pFn:
   301                           
   302                           ; 1 bytes @ 0x7
   303  0036                     	ds	1
   304  0037                     ??_RTO_vid_CreateTask:
   305  0037                     RTO_vid_CreateTask@copy_u8Priority:	
   306                           ; 1 bytes @ 0x8
   307                           
   308                           
   309                           ; 1 bytes @ 0x8
   310  0037                     	ds	1
   311  0038                     ??_main:
   312                           
   313                           	psect	maintext
   314  0184                     __pmaintext:	
   315                           ; 1 bytes @ 0x9
   316 ;;
   317 ;;Main: autosize = 0, tempsize = 0, incstack = 0, save=0
   318 ;;
   319 ;; *************** function _main *****************
   320 ;; Defined at:
   321 ;;		line 22 in file "main.c"
   322 ;; Parameters:    Size  Location     Type
   323 ;;		None
   324 ;; Auto vars:     Size  Location     Type
   325 ;;		None
   326 ;; Return value:  Size  Location     Type
   327 ;;                  2  124[None  ] int 
   328 ;; Registers used:
   329 ;;		wreg, fsr0l, fsr0h, status,2, status,0, btemp+1, pclath, cstack
   330 ;; Tracked objects:
   331 ;;		On entry : B00/0
   332 ;;		On exit  : 0/0
   333 ;;		Unchanged: 0/0
   334 ;; Data sizes:     COMMON   BANK0   BANK1   BANK3   BANK2
   335 ;;      Params:         0       0       0       0       0
   336 ;;      Locals:         0       0       0       0       0
   337 ;;      Temps:          0       0       0       0       0
   338 ;;      Totals:         0       0       0       0       0
   339 ;;Total ram usage:        0 bytes
   340 ;; Hardware stack levels required when called:    5
   341 ;; This function calls:
   342 ;;		_RTO_Init
   343 ;;		_RTO_vid_CreateTask
   344 ;;		_Timer1_Init_Comp
   345 ;;		_vid_SystemInit
   346 ;; This function is called by:
   347 ;;		Startup code after reset
   348 ;; This function uses a non-reentrant model
   349 ;;
   350                           
   351                           
   352                           ;psect for function _main
   353  0184                     _main:
   354  0184                     l1136:	
   355                           ;incstack = 0
   356                           ; Regs used in _main: [wreg-fsr0h+status,2+status,0+btemp+1+pclath+cstack]
   357                           
   358                           
   359                           ;main.c: 24:  vid_SystemInit() ;
   360  0184  120A  118A  2211  120A  118A  	fcall	_vid_SystemInit
   361  0189                     l1138:
   362                           
   363                           ;main.c: 25:  RTO_Init() ;
   364  0189  120A  118A  22A4  120A  118A  	fcall	_RTO_Init
   365  018E                     l1140:
   366                           
   367                           ;main.c: 27:  RTO_vid_CreateTask(0 ,3000 ,0 ,&RedLed_TOG ) ;
   368  018E  30B8               	movlw	184
   369  018F  1283               	bcf	3,5	;RP0=0, select bank0
   370  0190  1303               	bcf	3,6	;RP1=0, select bank0
   371  0191  00B2               	movwf	RTO_vid_CreateTask@copy_u16Priodicity
   372  0192  300B               	movlw	11
   373  0193  00B3               	movwf	RTO_vid_CreateTask@copy_u16Priodicity+1
   374  0194  3000               	movlw	0
   375  0195  00B4               	movwf	RTO_vid_CreateTask@copy_u16FirstDelay
   376  0196  00B5               	movwf	RTO_vid_CreateTask@copy_u16FirstDelay+1
   377  0197  3004               	movlw	(low (fp__RedLed_TOG-i1fpbase))& (0+255)
   378  0198  00FF               	movwf	btemp+1
   379  0199  087F               	movf	btemp+1,w
   380  019A  00B6               	movwf	RTO_vid_CreateTask@copy_pFn
   381  019B  3000               	movlw	0
   382  019C  120A  118A  21D2  120A  118A  	fcall	_RTO_vid_CreateTask
   383  01A1                     l1142:
   384                           
   385                           ;main.c: 28:  RTO_vid_CreateTask(1 ,3000 ,1000 ,&GreenLed_TOG ) ;
   386  01A1  30B8               	movlw	184
   387  01A2  1283               	bcf	3,5	;RP0=0, select bank0
   388  01A3  1303               	bcf	3,6	;RP1=0, select bank0
   389  01A4  00B2               	movwf	RTO_vid_CreateTask@copy_u16Priodicity
   390  01A5  300B               	movlw	11
   391  01A6  00B3               	movwf	RTO_vid_CreateTask@copy_u16Priodicity+1
   392  01A7  30E8               	movlw	232
   393  01A8  00B4               	movwf	RTO_vid_CreateTask@copy_u16FirstDelay
   394  01A9  3003               	movlw	3
   395  01AA  00B5               	movwf	RTO_vid_CreateTask@copy_u16FirstDelay+1
   396  01AB  3007               	movlw	(low (fp__GreenLed_TOG-i1fpbase))& (0+255)
   397  01AC  00FF               	movwf	btemp+1
   398  01AD  087F               	movf	btemp+1,w
   399  01AE  00B6               	movwf	RTO_vid_CreateTask@copy_pFn
   400  01AF  3001               	movlw	1
   401  01B0  120A  118A  21D2  120A  118A  	fcall	_RTO_vid_CreateTask
   402  01B5                     l1144:
   403                           
   404                           ;main.c: 29:  RTO_vid_CreateTask(2 ,3000 ,2000 ,&YellowLed_TOG ) ;
   405  01B5  30B8               	movlw	184
   406  01B6  1283               	bcf	3,5	;RP0=0, select bank0
   407  01B7  1303               	bcf	3,6	;RP1=0, select bank0
   408  01B8  00B2               	movwf	RTO_vid_CreateTask@copy_u16Priodicity
   409  01B9  300B               	movlw	11
   410  01BA  00B3               	movwf	RTO_vid_CreateTask@copy_u16Priodicity+1
   411  01BB  30D0               	movlw	208
   412  01BC  00B4               	movwf	RTO_vid_CreateTask@copy_u16FirstDelay
   413  01BD  3007               	movlw	7
   414  01BE  00B5               	movwf	RTO_vid_CreateTask@copy_u16FirstDelay+1
   415  01BF  3001               	movlw	(low (fp__YellowLed_TOG-i1fpbase))& (0+255)
   416  01C0  00FF               	movwf	btemp+1
   417  01C1  087F               	movf	btemp+1,w
   418  01C2  00B6               	movwf	RTO_vid_CreateTask@copy_pFn
   419  01C3  3002               	movlw	2
   420  01C4  120A  118A  21D2  120A  118A  	fcall	_RTO_vid_CreateTask
   421                           
   422                           ;main.c: 32:  Timer1_Init_Comp() ;
   423  01C9  120A  118A  2271  120A  118A  	fcall	_Timer1_Init_Comp
   424  01CE                     l125:	
   425                           ;main.c: 35: while(1) ;
   426                           
   427  01CE                     l126:
   428  01CE  29CE               	goto	l125
   429  01CF  120A  118A  2812   	ljmp	start
   430  01D2                     __end_of_main:
   431                           
   432                           	psect	text1
   433  0211                     __ptext1:	
   434 ;; *************** function _vid_SystemInit *****************
   435 ;; Defined at:
   436 ;;		line 19 in file "program.c"
   437 ;; Parameters:    Size  Location     Type
   438 ;;		None
   439 ;; Auto vars:     Size  Location     Type
   440 ;;		None
   441 ;; Return value:  Size  Location     Type
   442 ;;                  1    wreg      void 
   443 ;; Registers used:
   444 ;;		wreg, fsr0l, fsr0h, status,2, status,0, btemp+1, pclath, cstack
   445 ;; Tracked objects:
   446 ;;		On entry : 0/0
   447 ;;		On exit  : 0/0
   448 ;;		Unchanged: 0/0
   449 ;; Data sizes:     COMMON   BANK0   BANK1   BANK3   BANK2
   450 ;;      Params:         0       0       0       0       0
   451 ;;      Locals:         0       0       0       0       0
   452 ;;      Temps:          0       0       0       0       0
   453 ;;      Totals:         0       0       0       0       0
   454 ;;Total ram usage:        0 bytes
   455 ;; Hardware stack levels used:    1
   456 ;; Hardware stack levels required when called:    4
   457 ;; This function calls:
   458 ;;		_DIO_SetPinDirection
   459 ;; This function is called by:
   460 ;;		_main
   461 ;; This function uses a non-reentrant model
   462 ;;
   463                           
   464                           
   465                           ;psect for function _vid_SystemInit
   466  0211                     _vid_SystemInit:
   467  0211                     l1128:	
   468                           ;incstack = 0
   469                           ; Regs used in _vid_SystemInit: [wreg-fsr0h+status,2+status,0+btemp+1+pclath+cstack]
   470                           
   471                           
   472                           ;program.c: 21:  DIO_SetPinDirection (2, 0, 1);
   473  0211  1283               	bcf	3,5	;RP0=0, select bank0
   474  0212  1303               	bcf	3,6	;RP1=0, select bank0
   475  0213  01AF               	clrf	DIO_SetPinDirection@u8PinIdCopy
   476  0214  01B0               	clrf	DIO_SetPinDirection@u8PinDirCopy
   477  0215  0AB0               	incf	DIO_SetPinDirection@u8PinDirCopy,f
   478  0216  3002               	movlw	2
   479  0217  120A  118A  203E  120A  118A  	fcall	_DIO_SetPinDirection
   480                           
   481                           ;program.c: 22:  DIO_SetPinDirection (2, 1, 1);
   482  021C  1283               	bcf	3,5	;RP0=0, select bank0
   483  021D  1303               	bcf	3,6	;RP1=0, select bank0
   484  021E  01AF               	clrf	DIO_SetPinDirection@u8PinIdCopy
   485  021F  0AAF               	incf	DIO_SetPinDirection@u8PinIdCopy,f
   486  0220  01B0               	clrf	DIO_SetPinDirection@u8PinDirCopy
   487  0221  0AB0               	incf	DIO_SetPinDirection@u8PinDirCopy,f
   488  0222  3002               	movlw	2
   489  0223  120A  118A  203E  120A  118A  	fcall	_DIO_SetPinDirection
   490                           
   491                           ;program.c: 23:  DIO_SetPinDirection (2, 2, 1);
   492  0228  3002               	movlw	2
   493  0229  00FF               	movwf	btemp+1
   494  022A  087F               	movf	btemp+1,w
   495  022B  1283               	bcf	3,5	;RP0=0, select bank0
   496  022C  1303               	bcf	3,6	;RP1=0, select bank0
   497  022D  00AF               	movwf	DIO_SetPinDirection@u8PinIdCopy
   498  022E  01B0               	clrf	DIO_SetPinDirection@u8PinDirCopy
   499  022F  0AB0               	incf	DIO_SetPinDirection@u8PinDirCopy,f
   500  0230  3002               	movlw	2
   501  0231  120A  118A  203E  120A  118A  	fcall	_DIO_SetPinDirection
   502  0236                     l133:
   503  0236  0008               	return
   504  0237                     __end_of_vid_SystemInit:
   505                           
   506                           	psect	text2
   507  003E                     __ptext2:	
   508 ;; *************** function _DIO_SetPinDirection *****************
   509 ;; Defined at:
   510 ;;		line 17 in file "DIO_Prog.c"
   511 ;; Parameters:    Size  Location     Type
   512 ;;  u8PortIdCopy    1    wreg     unsigned char 
   513 ;;  u8PinIdCopy     1    0[BANK0 ] unsigned char 
   514 ;;  u8PinDirCopy    1    1[BANK0 ] unsigned char 
   515 ;; Auto vars:     Size  Location     Type
   516 ;;  u8PortIdCopy    1    4[BANK0 ] unsigned char 
   517 ;; Return value:  Size  Location     Type
   518 ;;                  1    wreg      void 
   519 ;; Registers used:
   520 ;;		wreg, fsr0l, fsr0h, status,2, status,0, btemp+1
   521 ;; Tracked objects:
   522 ;;		On entry : 0/0
   523 ;;		On exit  : 0/0
   524 ;;		Unchanged: 0/0
   525 ;; Data sizes:     COMMON   BANK0   BANK1   BANK3   BANK2
   526 ;;      Params:         0       2       0       0       0
   527 ;;      Locals:         0       1       0       0       0
   528 ;;      Temps:          0       2       0       0       0
   529 ;;      Totals:         0       5       0       0       0
   530 ;;Total ram usage:        5 bytes
   531 ;; Hardware stack levels used:    1
   532 ;; Hardware stack levels required when called:    3
   533 ;; This function calls:
   534 ;;		Nothing
   535 ;; This function is called by:
   536 ;;		_vid_SystemInit
   537 ;; This function uses a non-reentrant model
   538 ;;
   539                           
   540                           
   541                           ;psect for function _DIO_SetPinDirection
   542  003E                     _DIO_SetPinDirection:
   543                           
   544                           ;incstack = 0
   545                           ; Regs used in _DIO_SetPinDirection: [wreg-fsr0h+status,2+status,0+btemp+1]
   546                           ;DIO_SetPinDirection@u8PortIdCopy stored from wreg
   547  003E  1283               	bcf	3,5	;RP0=0, select bank0
   548  003F  1303               	bcf	3,6	;RP1=0, select bank0
   549  0040  00B3               	movwf	DIO_SetPinDirection@u8PortIdCopy
   550  0041                     l1016:
   551                           
   552                           ;DIO_Prog.c: 17: void DIO_SetPinDirection (u8 u8PortIdCopy, u8 u8PinIdCopy, u8 u8PinDirC
      +                          opy);DIO_Prog.c: 18: {;DIO_Prog.c: 20:  if ((u8PortIdCopy <= 3) && (u8PinIdCopy <= 7))
   553  0041  3004               	movlw	4
   554  0042  0233               	subwf	DIO_SetPinDirection@u8PortIdCopy,w
   555  0043  1803               	skipnc
   556  0044  2846               	goto	u351
   557  0045  2847               	goto	u350
   558  0046                     u351:
   559  0046  2909               	goto	l21
   560  0047                     u350:
   561  0047                     l1018:
   562  0047  3008               	movlw	8
   563  0048  022F               	subwf	DIO_SetPinDirection@u8PinIdCopy,w
   564  0049  1803               	skipnc
   565  004A  284C               	goto	u361
   566  004B  284D               	goto	u360
   567  004C                     u361:
   568  004C  2909               	goto	l21
   569  004D                     u360:
   570  004D                     l1020:
   571                           
   572                           ;DIO_Prog.c: 21:  {;DIO_Prog.c: 22:   if ( u8PinDirCopy == 1 )
   573  004D  0330               	decf	DIO_SetPinDirection@u8PinDirCopy,w
   574  004E  1D03               	btfss	3,2
   575  004F  2851               	goto	u371
   576  0050  2852               	goto	u370
   577  0051                     u371:
   578  0051  28AD               	goto	l1036
   579  0052                     u370:
   580  0052  2897               	goto	l1034
   581  0053                     l1024:
   582  0053  3001               	movlw	1
   583  0054  00B1               	movwf	??_DIO_SetPinDirection
   584  0055  0A2F               	incf	DIO_SetPinDirection@u8PinIdCopy,w
   585  0056  2859               	goto	u384
   586  0057                     u385:
   587  0057  1003               	clrc
   588  0058  0DB1               	rlf	??_DIO_SetPinDirection,f
   589  0059                     u384:
   590  0059  3EFF               	addlw	-1
   591  005A  1D03               	skipz
   592  005B  2857               	goto	u385
   593  005C  0831               	movf	??_DIO_SetPinDirection,w
   594  005D  3AFF               	xorlw	255
   595  005E  00FF               	movwf	btemp+1
   596  005F  087F               	movf	btemp+1,w
   597  0060  1683               	bsf	3,5	;RP0=1, select bank1
   598  0061  1303               	bcf	3,6	;RP1=0, select bank1
   599  0062  0585               	andwf	5,f	;volatile
   600  0063  2909               	goto	l21
   601  0064                     l1026:
   602  0064  3001               	movlw	1
   603  0065  00B1               	movwf	??_DIO_SetPinDirection
   604  0066  0A2F               	incf	DIO_SetPinDirection@u8PinIdCopy,w
   605  0067  286A               	goto	u394
   606  0068                     u395:
   607  0068  1003               	clrc
   608  0069  0DB1               	rlf	??_DIO_SetPinDirection,f
   609  006A                     u394:
   610  006A  3EFF               	addlw	-1
   611  006B  1D03               	skipz
   612  006C  2868               	goto	u395
   613  006D  0831               	movf	??_DIO_SetPinDirection,w
   614  006E  3AFF               	xorlw	255
   615  006F  00FF               	movwf	btemp+1
   616  0070  087F               	movf	btemp+1,w
   617  0071  1683               	bsf	3,5	;RP0=1, select bank1
   618  0072  1303               	bcf	3,6	;RP1=0, select bank1
   619  0073  0586               	andwf	6,f	;volatile
   620  0074  2909               	goto	l21
   621  0075                     l1028:
   622  0075  3001               	movlw	1
   623  0076  00B1               	movwf	??_DIO_SetPinDirection
   624  0077  0A2F               	incf	DIO_SetPinDirection@u8PinIdCopy,w
   625  0078  287B               	goto	u404
   626  0079                     u405:
   627  0079  1003               	clrc
   628  007A  0DB1               	rlf	??_DIO_SetPinDirection,f
   629  007B                     u404:
   630  007B  3EFF               	addlw	-1
   631  007C  1D03               	skipz
   632  007D  2879               	goto	u405
   633  007E  0831               	movf	??_DIO_SetPinDirection,w
   634  007F  3AFF               	xorlw	255
   635  0080  00FF               	movwf	btemp+1
   636  0081  087F               	movf	btemp+1,w
   637  0082  1683               	bsf	3,5	;RP0=1, select bank1
   638  0083  1303               	bcf	3,6	;RP1=0, select bank1
   639  0084  0587               	andwf	7,f	;volatile
   640  0085  2909               	goto	l21
   641  0086                     l1030:
   642  0086  3001               	movlw	1
   643  0087  00B1               	movwf	??_DIO_SetPinDirection
   644  0088  0A2F               	incf	DIO_SetPinDirection@u8PinIdCopy,w
   645  0089  288C               	goto	u414
   646  008A                     u415:
   647  008A  1003               	clrc
   648  008B  0DB1               	rlf	??_DIO_SetPinDirection,f
   649  008C                     u414:
   650  008C  3EFF               	addlw	-1
   651  008D  1D03               	skipz
   652  008E  288A               	goto	u415
   653  008F  0831               	movf	??_DIO_SetPinDirection,w
   654  0090  3AFF               	xorlw	255
   655  0091  00FF               	movwf	btemp+1
   656  0092  087F               	movf	btemp+1,w
   657  0093  1683               	bsf	3,5	;RP0=1, select bank1
   658  0094  1303               	bcf	3,6	;RP1=0, select bank1
   659  0095  0588               	andwf	8,f	;volatile
   660  0096  2909               	goto	l21
   661  0097                     l1034:
   662  0097  0833               	movf	DIO_SetPinDirection@u8PortIdCopy,w
   663  0098  00B1               	movwf	??_DIO_SetPinDirection
   664  0099  01B2               	clrf	??_DIO_SetPinDirection+1
   665                           
   666                           ; Switch on 2 bytes has been partitioned into a top level switch of size 1, and 1 sub-sw
      +                          itches
   667                           ; Switch size 1, requested type "simple"
   668                           ; Number of cases is 1, Range of values is 0 to 0
   669                           ; switch strategies available:
   670                           ; Name         Instructions Cycles
   671                           ; simple_byte            4     3 (average)
   672                           ; direct_byte           11     8 (fixed)
   673                           ; jumptable            260     6 (fixed)
   674                           ;	Chosen strategy is simple_byte
   675  009A  0832               	movf	??_DIO_SetPinDirection+1,w
   676  009B  3A00               	xorlw	0	; case 0
   677  009C  1903               	skipnz
   678  009D  289F               	goto	l1186
   679  009E  2909               	goto	l21
   680  009F                     l1186:
   681                           
   682                           ; Switch size 1, requested type "simple"
   683                           ; Number of cases is 4, Range of values is 0 to 3
   684                           ; switch strategies available:
   685                           ; Name         Instructions Cycles
   686                           ; simple_byte           13     7 (average)
   687                           ; direct_byte           20     8 (fixed)
   688                           ; jumptable            260     6 (fixed)
   689                           ;	Chosen strategy is simple_byte
   690  009F  0831               	movf	??_DIO_SetPinDirection,w
   691  00A0  3A00               	xorlw	0	; case 0
   692  00A1  1903               	skipnz
   693  00A2  2853               	goto	l1024
   694  00A3  3A01               	xorlw	1	; case 1
   695  00A4  1903               	skipnz
   696  00A5  2864               	goto	l1026
   697  00A6  3A03               	xorlw	3	; case 2
   698  00A7  1903               	skipnz
   699  00A8  2875               	goto	l1028
   700  00A9  3A01               	xorlw	1	; case 3
   701  00AA  1903               	skipnz
   702  00AB  2886               	goto	l1030
   703  00AC  2909               	goto	l21
   704  00AD                     l1036:
   705  00AD  0830               	movf	DIO_SetPinDirection@u8PinDirCopy,w
   706  00AE  1D03               	btfss	3,2
   707  00AF  28B1               	goto	u421
   708  00B0  28B2               	goto	u420
   709  00B1                     u421:
   710  00B1  2909               	goto	l11
   711  00B2                     u420:
   712  00B2  28F3               	goto	l1050
   713  00B3                     l1040:
   714  00B3  3001               	movlw	1
   715  00B4  00B1               	movwf	??_DIO_SetPinDirection
   716  00B5  0A2F               	incf	DIO_SetPinDirection@u8PinIdCopy,w
   717  00B6  28B9               	goto	u434
   718  00B7                     u435:
   719  00B7  1003               	clrc
   720  00B8  0DB1               	rlf	??_DIO_SetPinDirection,f
   721  00B9                     u434:
   722  00B9  3EFF               	addlw	-1
   723  00BA  1D03               	skipz
   724  00BB  28B7               	goto	u435
   725  00BC  0831               	movf	??_DIO_SetPinDirection,w
   726  00BD  00FF               	movwf	btemp+1
   727  00BE  087F               	movf	btemp+1,w
   728  00BF  1683               	bsf	3,5	;RP0=1, select bank1
   729  00C0  1303               	bcf	3,6	;RP1=0, select bank1
   730  00C1  0485               	iorwf	5,f	;volatile
   731  00C2  2909               	goto	l21
   732  00C3                     l1042:
   733  00C3  3001               	movlw	1
   734  00C4  00B1               	movwf	??_DIO_SetPinDirection
   735  00C5  0A2F               	incf	DIO_SetPinDirection@u8PinIdCopy,w
   736  00C6  28C9               	goto	u444
   737  00C7                     u445:
   738  00C7  1003               	clrc
   739  00C8  0DB1               	rlf	??_DIO_SetPinDirection,f
   740  00C9                     u444:
   741  00C9  3EFF               	addlw	-1
   742  00CA  1D03               	skipz
   743  00CB  28C7               	goto	u445
   744  00CC  0831               	movf	??_DIO_SetPinDirection,w
   745  00CD  00FF               	movwf	btemp+1
   746  00CE  087F               	movf	btemp+1,w
   747  00CF  1683               	bsf	3,5	;RP0=1, select bank1
   748  00D0  1303               	bcf	3,6	;RP1=0, select bank1
   749  00D1  0486               	iorwf	6,f	;volatile
   750  00D2  2909               	goto	l21
   751  00D3                     l1044:
   752  00D3  3001               	movlw	1
   753  00D4  00B1               	movwf	??_DIO_SetPinDirection
   754  00D5  0A2F               	incf	DIO_SetPinDirection@u8PinIdCopy,w
   755  00D6  28D9               	goto	u454
   756  00D7                     u455:
   757  00D7  1003               	clrc
   758  00D8  0DB1               	rlf	??_DIO_SetPinDirection,f
   759  00D9                     u454:
   760  00D9  3EFF               	addlw	-1
   761  00DA  1D03               	skipz
   762  00DB  28D7               	goto	u455
   763  00DC  0831               	movf	??_DIO_SetPinDirection,w
   764  00DD  00FF               	movwf	btemp+1
   765  00DE  087F               	movf	btemp+1,w
   766  00DF  1683               	bsf	3,5	;RP0=1, select bank1
   767  00E0  1303               	bcf	3,6	;RP1=0, select bank1
   768  00E1  0487               	iorwf	7,f	;volatile
   769  00E2  2909               	goto	l21
   770  00E3                     l1046:
   771  00E3  3001               	movlw	1
   772  00E4  00B1               	movwf	??_DIO_SetPinDirection
   773  00E5  0A2F               	incf	DIO_SetPinDirection@u8PinIdCopy,w
   774  00E6  28E9               	goto	u464
   775  00E7                     u465:
   776  00E7  1003               	clrc
   777  00E8  0DB1               	rlf	??_DIO_SetPinDirection,f
   778  00E9                     u464:
   779  00E9  3EFF               	addlw	-1
   780  00EA  1D03               	skipz
   781  00EB  28E7               	goto	u465
   782  00EC  0831               	movf	??_DIO_SetPinDirection,w
   783  00ED  00FF               	movwf	btemp+1
   784  00EE  087F               	movf	btemp+1,w
   785  00EF  1683               	bsf	3,5	;RP0=1, select bank1
   786  00F0  1303               	bcf	3,6	;RP1=0, select bank1
   787  00F1  0488               	iorwf	8,f	;volatile
   788  00F2  2909               	goto	l21
   789  00F3                     l1050:
   790  00F3  0833               	movf	DIO_SetPinDirection@u8PortIdCopy,w
   791  00F4  00B1               	movwf	??_DIO_SetPinDirection
   792  00F5  01B2               	clrf	??_DIO_SetPinDirection+1
   793                           
   794                           ; Switch on 2 bytes has been partitioned into a top level switch of size 1, and 1 sub-sw
      +                          itches
   795                           ; Switch size 1, requested type "simple"
   796                           ; Number of cases is 1, Range of values is 0 to 0
   797                           ; switch strategies available:
   798                           ; Name         Instructions Cycles
   799                           ; simple_byte            4     3 (average)
   800                           ; direct_byte           11     8 (fixed)
   801                           ; jumptable            260     6 (fixed)
   802                           ;	Chosen strategy is simple_byte
   803  00F6  0832               	movf	??_DIO_SetPinDirection+1,w
   804  00F7  3A00               	xorlw	0	; case 0
   805  00F8  1903               	skipnz
   806  00F9  28FB               	goto	l1188
   807  00FA  2909               	goto	l11
   808  00FB                     l1188:
   809                           
   810                           ; Switch size 1, requested type "simple"
   811                           ; Number of cases is 4, Range of values is 0 to 3
   812                           ; switch strategies available:
   813                           ; Name         Instructions Cycles
   814                           ; simple_byte           13     7 (average)
   815                           ; direct_byte           20     8 (fixed)
   816                           ; jumptable            260     6 (fixed)
   817                           ;	Chosen strategy is simple_byte
   818  00FB  0831               	movf	??_DIO_SetPinDirection,w
   819  00FC  3A00               	xorlw	0	; case 0
   820  00FD  1903               	skipnz
   821  00FE  28B3               	goto	l1040
   822  00FF  3A01               	xorlw	1	; case 1
   823  0100  1903               	skipnz
   824  0101  28C3               	goto	l1042
   825  0102  3A03               	xorlw	3	; case 2
   826  0103  1903               	skipnz
   827  0104  28D3               	goto	l1044
   828  0105  3A01               	xorlw	1	; case 3
   829  0106  1903               	skipnz
   830  0107  28E3               	goto	l1046
   831  0108  2909               	goto	l11
   832  0109                     l11:
   833  0109                     l21:	
   834                           ;DIO_Prog.c: 50:  }
   835                           
   836  0109  0008               	return
   837  010A                     __end_of_DIO_SetPinDirection:
   838                           
   839                           	psect	text3
   840  0271                     __ptext3:	
   841 ;; *************** function _Timer1_Init_Comp *****************
   842 ;; Defined at:
   843 ;;		line 18 in file "Timer1_Prog.c"
   844 ;; Parameters:    Size  Location     Type
   845 ;;		None
   846 ;; Auto vars:     Size  Location     Type
   847 ;;		None
   848 ;; Return value:  Size  Location     Type
   849 ;;                  1    wreg      void 
   850 ;; Registers used:
   851 ;;		wreg, status,2, btemp+1
   852 ;; Tracked objects:
   853 ;;		On entry : 0/0
   854 ;;		On exit  : 0/0
   855 ;;		Unchanged: 0/0
   856 ;; Data sizes:     COMMON   BANK0   BANK1   BANK3   BANK2
   857 ;;      Params:         0       0       0       0       0
   858 ;;      Locals:         0       0       0       0       0
   859 ;;      Temps:          0       0       0       0       0
   860 ;;      Totals:         0       0       0       0       0
   861 ;;Total ram usage:        0 bytes
   862 ;; Hardware stack levels used:    1
   863 ;; Hardware stack levels required when called:    3
   864 ;; This function calls:
   865 ;;		Nothing
   866 ;; This function is called by:
   867 ;;		_main
   868 ;; This function uses a non-reentrant model
   869 ;;
   870                           
   871                           
   872                           ;psect for function _Timer1_Init_Comp
   873  0271                     _Timer1_Init_Comp:
   874  0271                     l1094:	
   875                           ;incstack = 0
   876                           ; Regs used in _Timer1_Init_Comp: [wreg+status,2+btemp+1]
   877                           
   878                           
   879                           ;Timer1_Prog.c: 21:     (*((volatile u8*)0x0E)) = 0 ;
   880  0271  1283               	bcf	3,5	;RP0=0, select bank0
   881  0272  1303               	bcf	3,6	;RP1=0, select bank0
   882  0273  018E               	clrf	14	;volatile
   883                           
   884                           ;Timer1_Prog.c: 22:     (*((volatile u8*)0x0F)) = 0 ;
   885  0274  018F               	clrf	15	;volatile
   886  0275                     l1096:
   887                           
   888                           ;Timer1_Prog.c: 30:     (*((volatile u8*)0x10)) = 0b00100001 ;
   889  0275  3021               	movlw	33
   890  0276  00FF               	movwf	btemp+1
   891  0277  087F               	movf	btemp+1,w
   892  0278  0090               	movwf	16	;volatile
   893  0279                     l1098:
   894                           
   895                           ;Timer1_Prog.c: 36:     (*((volatile u8*)0x17)) = 0b00001011 ;
   896  0279  300B               	movlw	11
   897  027A  00FF               	movwf	btemp+1
   898  027B  087F               	movf	btemp+1,w
   899  027C  0097               	movwf	23	;volatile
   900  027D                     l1100:
   901                           
   902                           ;Timer1_Prog.c: 39:     (*((volatile u16*)0x15)) = 1000 ;
   903  027D  3003               	movlw	3
   904  027E  0096               	movwf	22	;volatile
   905  027F  30E8               	movlw	232
   906  0280  0095               	movwf	21	;volatile
   907  0281                     l1102:
   908                           
   909                           ;Timer1_Prog.c: 42:     ((*((volatile u8*)0x8C))) |= (1 << (2)) ;
   910  0281  1683               	bsf	3,5	;RP0=1, select bank1
   911  0282  1303               	bcf	3,6	;RP1=0, select bank1
   912  0283  150C               	bsf	12,2	;volatile
   913  0284                     l1104:
   914                           
   915                           ;Timer1_Prog.c: 45:     ((*((volatile u8*)0x0B))) |= (1 << (6)) ;
   916  0284  170B               	bsf	11,6	;volatile
   917  0285                     l1106:
   918                           
   919                           ;Timer1_Prog.c: 48:     ((*((volatile u8*)0x0B))) |= (1 << (7)) ;
   920  0285  178B               	bsf	11,7	;volatile
   921  0286                     l78:
   922  0286  0008               	return
   923  0287                     __end_of_Timer1_Init_Comp:
   924                           
   925                           	psect	text4
   926  01D2                     __ptext4:	
   927 ;; *************** function _RTO_vid_CreateTask *****************
   928 ;; Defined at:
   929 ;;		line 37 in file "RTO_Prog.c"
   930 ;; Parameters:    Size  Location     Type
   931 ;;  copy_u8Prior    1    wreg     unsigned char 
   932 ;;  copy_u16Prio    2    3[BANK0 ] unsigned short 
   933 ;;  copy_u16Firs    2    5[BANK0 ] unsigned short 
   934 ;;  copy_pFn        1    7[BANK0 ] PTR FTN()void 
   935 ;;		 -> YellowLed_TOG(1), GreenLed_TOG(1), RedLed_TOG(1), 
   936 ;; Auto vars:     Size  Location     Type
   937 ;;  copy_u8Prior    1    8[BANK0 ] unsigned char 
   938 ;; Return value:  Size  Location     Type
   939 ;;                  1    wreg      void 
   940 ;; Registers used:
   941 ;;		wreg, fsr0l, fsr0h, status,2, status,0, btemp+1, pclath, cstack
   942 ;; Tracked objects:
   943 ;;		On entry : 0/0
   944 ;;		On exit  : 0/0
   945 ;;		Unchanged: 0/0
   946 ;; Data sizes:     COMMON   BANK0   BANK1   BANK3   BANK2
   947 ;;      Params:         0       5       0       0       0
   948 ;;      Locals:         0       1       0       0       0
   949 ;;      Temps:          0       0       0       0       0
   950 ;;      Totals:         0       6       0       0       0
   951 ;;Total ram usage:        6 bytes
   952 ;; Hardware stack levels used:    1
   953 ;; Hardware stack levels required when called:    4
   954 ;; This function calls:
   955 ;;		___bmul
   956 ;; This function is called by:
   957 ;;		_main
   958 ;; This function uses a non-reentrant model
   959 ;;
   960                           
   961                           
   962                           ;psect for function _RTO_vid_CreateTask
   963  01D2                     _RTO_vid_CreateTask:
   964                           
   965                           ;incstack = 0
   966                           ; Regs used in _RTO_vid_CreateTask: [wreg-fsr0h+status,2+status,0+btemp+1+pclath+cstack]
   967                           ;RTO_vid_CreateTask@copy_u8Priority stored from wreg
   968  01D2  1283               	bcf	3,5	;RP0=0, select bank0
   969  01D3  1303               	bcf	3,6	;RP1=0, select bank0
   970  01D4  00B7               	movwf	RTO_vid_CreateTask@copy_u8Priority
   971  01D5                     l1110:
   972                           
   973                           ;RTO_Prog.c: 37: void RTO_vid_CreateTask(u8 copy_u8Priority ,u16 copy_u16Priodicity ,u16
      +                           copy_u16FirstDelay ,void (*copy_pFn)(void) );RTO_Prog.c: 38: {;RTO_Prog.c: 40:  Tasks[c
      +                          opy_u8Priority].u16_Periocicity = copy_u16Priodicity ;
   974  01D5  3005               	movlw	5
   975  01D6  00FF               	movwf	btemp+1
   976  01D7  087F               	movf	btemp+1,w
   977  01D8  00AF               	movwf	___bmul@multiplicand
   978  01D9  0837               	movf	RTO_vid_CreateTask@copy_u8Priority,w
   979  01DA  120A  118A  225A  120A  118A  	fcall	___bmul
   980  01DF  3E20               	addlw	(low (_Tasks| 0))& (0+255)
   981  01E0  0084               	movwf	4
   982  01E1  1283               	bcf	3,5	;RP0=0, select bank0
   983  01E2  1303               	bcf	3,6	;RP1=0, select bank0
   984  01E3  0832               	movf	RTO_vid_CreateTask@copy_u16Priodicity,w
   985  01E4  1383               	bcf	3,7	;select IRP bank0
   986  01E5  0080               	movwf	0
   987  01E6  0A84               	incf	4,f
   988  01E7  0833               	movf	RTO_vid_CreateTask@copy_u16Priodicity+1,w
   989  01E8  0080               	movwf	0
   990                           
   991                           ;RTO_Prog.c: 41:  Tasks[copy_u8Priority].u16_FirstDelay = copy_u16FirstDelay ;
   992  01E9  3005               	movlw	5
   993  01EA  00FF               	movwf	btemp+1
   994  01EB  087F               	movf	btemp+1,w
   995  01EC  00AF               	movwf	___bmul@multiplicand
   996  01ED  0837               	movf	RTO_vid_CreateTask@copy_u8Priority,w
   997  01EE  120A  118A  225A  120A  118A  	fcall	___bmul
   998  01F3  3E22               	addlw	(low ((_Tasks| 0+2)))& (0+255)
   999  01F4  0084               	movwf	4
  1000  01F5  1283               	bcf	3,5	;RP0=0, select bank0
  1001  01F6  1303               	bcf	3,6	;RP1=0, select bank0
  1002  01F7  0834               	movf	RTO_vid_CreateTask@copy_u16FirstDelay,w
  1003  01F8  1383               	bcf	3,7	;select IRP bank0
  1004  01F9  0080               	movwf	0
  1005  01FA  0A84               	incf	4,f
  1006  01FB  0835               	movf	RTO_vid_CreateTask@copy_u16FirstDelay+1,w
  1007  01FC  0080               	movwf	0
  1008                           
  1009                           ;RTO_Prog.c: 42:  Tasks[copy_u8Priority].pFn = copy_pFn ;
  1010  01FD  3005               	movlw	5
  1011  01FE  00FF               	movwf	btemp+1
  1012  01FF  087F               	movf	btemp+1,w
  1013  0200  00AF               	movwf	___bmul@multiplicand
  1014  0201  0837               	movf	RTO_vid_CreateTask@copy_u8Priority,w
  1015  0202  120A  118A  225A  120A  118A  	fcall	___bmul
  1016  0207  3E24               	addlw	(low ((_Tasks| 0+4)))& (0+255)
  1017  0208  0084               	movwf	4
  1018  0209  1283               	bcf	3,5	;RP0=0, select bank0
  1019  020A  1303               	bcf	3,6	;RP1=0, select bank0
  1020  020B  0836               	movf	RTO_vid_CreateTask@copy_pFn,w
  1021  020C  00FF               	movwf	btemp+1
  1022  020D  087F               	movf	btemp+1,w
  1023  020E  1383               	bcf	3,7	;select IRP bank0
  1024  020F  0080               	movwf	0
  1025  0210                     l99:
  1026  0210  0008               	return
  1027  0211                     __end_of_RTO_vid_CreateTask:
  1028                           
  1029                           	psect	text5
  1030  025A                     __ptext5:	
  1031 ;; *************** function ___bmul *****************
  1032 ;; Defined at:
  1033 ;;		line 4 in file "C:\Program Files\Microchip\xc8\v2.20\pic\sources\c90\common\Umul8.c"
  1034 ;; Parameters:    Size  Location     Type
  1035 ;;  multiplier      1    wreg     unsigned char 
  1036 ;;  multiplicand    1    0[BANK0 ] unsigned char 
  1037 ;; Auto vars:     Size  Location     Type
  1038 ;;  multiplier      1    2[BANK0 ] unsigned char 
  1039 ;;  product         1    1[BANK0 ] unsigned char 
  1040 ;; Return value:  Size  Location     Type
  1041 ;;                  1    wreg      unsigned char 
  1042 ;; Registers used:
  1043 ;;		wreg, status,2, status,0, btemp+1
  1044 ;; Tracked objects:
  1045 ;;		On entry : 0/0
  1046 ;;		On exit  : 0/0
  1047 ;;		Unchanged: 0/0
  1048 ;; Data sizes:     COMMON   BANK0   BANK1   BANK3   BANK2
  1049 ;;      Params:         0       1       0       0       0
  1050 ;;      Locals:         0       2       0       0       0
  1051 ;;      Temps:          0       0       0       0       0
  1052 ;;      Totals:         0       3       0       0       0
  1053 ;;Total ram usage:        3 bytes
  1054 ;; Hardware stack levels used:    1
  1055 ;; Hardware stack levels required when called:    3
  1056 ;; This function calls:
  1057 ;;		Nothing
  1058 ;; This function is called by:
  1059 ;;		_RTO_vid_CreateTask
  1060 ;;		_RTO_vid_StartSchedular
  1061 ;; This function uses a non-reentrant model
  1062 ;;
  1063                           
  1064                           
  1065                           ;psect for function ___bmul
  1066  025A                     ___bmul:
  1067                           
  1068                           ;incstack = 0
  1069                           ; Regs used in ___bmul: [wreg+status,2+status,0+btemp+1]
  1070                           ;___bmul@multiplier stored from wreg
  1071  025A  1283               	bcf	3,5	;RP0=0, select bank0
  1072  025B  1303               	bcf	3,6	;RP1=0, select bank0
  1073  025C  00B1               	movwf	___bmul@multiplier
  1074  025D                     l1062:
  1075  025D  01B0               	clrf	___bmul@product
  1076  025E                     l1064:
  1077  025E  1C31               	btfss	___bmul@multiplier,0
  1078  025F  2A61               	goto	u471
  1079  0260  2A62               	goto	u470
  1080  0261                     u471:
  1081  0261  2A66               	goto	l1068
  1082  0262                     u470:
  1083  0262                     l1066:
  1084  0262  082F               	movf	___bmul@multiplicand,w
  1085  0263  00FF               	movwf	btemp+1
  1086  0264  087F               	movf	btemp+1,w
  1087  0265  07B0               	addwf	___bmul@product,f
  1088  0266                     l1068:
  1089  0266  1003               	clrc
  1090  0267  0DAF               	rlf	___bmul@multiplicand,f
  1091  0268                     l1070:
  1092  0268  1003               	clrc
  1093  0269  0CB1               	rrf	___bmul@multiplier,f
  1094  026A                     l1072:
  1095  026A  0831               	movf	___bmul@multiplier,w
  1096  026B  1D03               	btfss	3,2
  1097  026C  2A6E               	goto	u481
  1098  026D  2A6F               	goto	u480
  1099  026E                     u481:
  1100  026E  2A5E               	goto	l1064
  1101  026F                     u480:
  1102  026F                     l1074:
  1103  026F  0830               	movf	___bmul@product,w
  1104  0270                     l254:
  1105  0270  0008               	return
  1106  0271                     __end_of___bmul:
  1107                           
  1108                           	psect	text6
  1109  02A4                     __ptext6:	
  1110 ;; *************** function _RTO_Init *****************
  1111 ;; Defined at:
  1112 ;;		line 28 in file "RTO_Prog.c"
  1113 ;; Parameters:    Size  Location     Type
  1114 ;;		None
  1115 ;; Auto vars:     Size  Location     Type
  1116 ;;		None
  1117 ;; Return value:  Size  Location     Type
  1118 ;;                  1    wreg      void 
  1119 ;; Registers used:
  1120 ;;		wreg, status,2, status,0, btemp+1, pclath, cstack
  1121 ;; Tracked objects:
  1122 ;;		On entry : 0/0
  1123 ;;		On exit  : 0/0
  1124 ;;		Unchanged: 0/0
  1125 ;; Data sizes:     COMMON   BANK0   BANK1   BANK3   BANK2
  1126 ;;      Params:         0       0       0       0       0
  1127 ;;      Locals:         0       0       0       0       0
  1128 ;;      Temps:          0       0       0       0       0
  1129 ;;      Totals:         0       0       0       0       0
  1130 ;;Total ram usage:        0 bytes
  1131 ;; Hardware stack levels used:    1
  1132 ;; Hardware stack levels required when called:    4
  1133 ;; This function calls:
  1134 ;;		_Timer_SetCallBack
  1135 ;; This function is called by:
  1136 ;;		_main
  1137 ;; This function uses a non-reentrant model
  1138 ;;
  1139                           
  1140                           
  1141                           ;psect for function _RTO_Init
  1142  02A4                     _RTO_Init:
  1143  02A4                     l1108:	
  1144                           ;incstack = 0
  1145                           ; Regs used in _RTO_Init: [wreg+status,2+status,0+btemp+1+pclath+cstack]
  1146                           
  1147                           
  1148                           ;RTO_Prog.c: 30:  Timer_SetCallBack(&RTO_vid_StartSchedular) ;
  1149  02A4  300A               	movlw	(low (fp__RTO_vid_StartSchedular-i1fpbase))& (0+255)
  1150  02A5  120A  118A  229C  120A  118A  	fcall	_Timer_SetCallBack
  1151  02AA                     l96:
  1152  02AA  0008               	return
  1153  02AB                     __end_of_RTO_Init:
  1154                           
  1155                           	psect	text7
  1156  029C                     __ptext7:	
  1157 ;; *************** function _Timer_SetCallBack *****************
  1158 ;; Defined at:
  1159 ;;		line 54 in file "Timer1_Prog.c"
  1160 ;; Parameters:    Size  Location     Type
  1161 ;;  local_pFn       1    wreg     PTR FTN()void 
  1162 ;;		 -> RTO_vid_StartSchedular(1), 
  1163 ;; Auto vars:     Size  Location     Type
  1164 ;;  local_pFn       1    0[BANK0 ] PTR FTN()void 
  1165 ;;		 -> RTO_vid_StartSchedular(1), 
  1166 ;; Return value:  Size  Location     Type
  1167 ;;                  1    wreg      void 
  1168 ;; Registers used:
  1169 ;;		wreg, btemp+1
  1170 ;; Tracked objects:
  1171 ;;		On entry : 0/0
  1172 ;;		On exit  : 0/0
  1173 ;;		Unchanged: 0/0
  1174 ;; Data sizes:     COMMON   BANK0   BANK1   BANK3   BANK2
  1175 ;;      Params:         0       0       0       0       0
  1176 ;;      Locals:         0       1       0       0       0
  1177 ;;      Temps:          0       0       0       0       0
  1178 ;;      Totals:         0       1       0       0       0
  1179 ;;Total ram usage:        1 bytes
  1180 ;; Hardware stack levels used:    1
  1181 ;; Hardware stack levels required when called:    3
  1182 ;; This function calls:
  1183 ;;		Nothing
  1184 ;; This function is called by:
  1185 ;;		_RTO_Init
  1186 ;; This function uses a non-reentrant model
  1187 ;;
  1188                           
  1189                           
  1190                           ;psect for function _Timer_SetCallBack
  1191  029C                     _Timer_SetCallBack:
  1192                           
  1193                           ;incstack = 0
  1194                           ; Regs used in _Timer_SetCallBack: [wreg+btemp+1]
  1195                           ;Timer_SetCallBack@local_pFn stored from wreg
  1196  029C  1283               	bcf	3,5	;RP0=0, select bank0
  1197  029D  1303               	bcf	3,6	;RP1=0, select bank0
  1198  029E  00AF               	movwf	Timer_SetCallBack@local_pFn
  1199  029F                     l1060:
  1200                           
  1201                           ;Timer1_Prog.c: 54:  void Timer_SetCallBack (void (*local_pFn)(void));Timer1_Prog.c: 55:
      +                           {;Timer1_Prog.c: 56:  Global_pFn = local_pFn ;
  1202  029F  082F               	movf	Timer_SetCallBack@local_pFn,w
  1203  02A0  00FF               	movwf	btemp+1
  1204  02A1  087F               	movf	btemp+1,w
  1205  02A2  00FD               	movwf	_Global_pFn
  1206  02A3                     l81:
  1207  02A3  0008               	return
  1208  02A4                     __end_of_Timer_SetCallBack:
  1209                           
  1210                           	psect	text8
  1211  0237                     __ptext8:	
  1212 ;; *************** function _ISR *****************
  1213 ;; Defined at:
  1214 ;;		line 62 in file "Timer1_Prog.c"
  1215 ;; Parameters:    Size  Location     Type
  1216 ;;		None
  1217 ;; Auto vars:     Size  Location     Type
  1218 ;;		None
  1219 ;; Return value:  Size  Location     Type
  1220 ;;                  1    wreg      void 
  1221 ;; Registers used:
  1222 ;;		wreg, fsr0l, fsr0h, status,2, status,0, btemp+1, pclath, cstack
  1223 ;; Tracked objects:
  1224 ;;		On entry : 0/0
  1225 ;;		On exit  : 0/0
  1226 ;;		Unchanged: 0/0
  1227 ;; Data sizes:     COMMON   BANK0   BANK1   BANK3   BANK2
  1228 ;;      Params:         0       0       0       0       0
  1229 ;;      Locals:         0       0       0       0       0
  1230 ;;      Temps:          5       0       0       0       0
  1231 ;;      Totals:         5       0       0       0       0
  1232 ;;Total ram usage:        5 bytes
  1233 ;; Hardware stack levels used:    1
  1234 ;; Hardware stack levels required when called:    2
  1235 ;; This function calls:
  1236 ;;		Absolute function
  1237 ;;		_RTO_vid_StartSchedular
  1238 ;; This function is called by:
  1239 ;;		Interrupt level 1
  1240 ;; This function uses a non-reentrant model
  1241 ;;
  1242                           
  1243                           
  1244                           ;psect for function _ISR
  1245  0237                     _ISR:
  1246  0237                     i1l1130:
  1247                           
  1248                           ;Timer1_Prog.c: 64:     if (((((*((volatile u8*)0x0C))) >> (2)) & 0x01))
  1249  0237  080C               	movf	12,w	;volatile
  1250  0238  00F8               	movwf	??_ISR
  1251  0239  3002               	movlw	2
  1252  023A                     u53_25:
  1253  023A  1003               	clrc
  1254  023B  0CF8               	rrf	??_ISR,f
  1255  023C  3EFF               	addlw	-1
  1256  023D  1D03               	skipz
  1257  023E  2A3A               	goto	u53_25
  1258  023F  1C78               	btfss	??_ISR,0
  1259  0240  2A42               	goto	u54_21
  1260  0241  2A43               	goto	u54_20
  1261  0242                     u54_21:
  1262  0242  2A4F               	goto	i1l87
  1263  0243                     u54_20:
  1264  0243                     i1l1132:
  1265                           
  1266                           ;Timer1_Prog.c: 65:     {;Timer1_Prog.c: 66:         Global_pFn () ;
  1267  0243  087D               	movf	_Global_pFn,w
  1268  0244  120A  118A  202C  120A  118A  	fcall	i1fptable
  1269  0249                     i1l1134:
  1270                           
  1271                           ;Timer1_Prog.c: 67:         ((*((volatile u8*)0x0C))) &= ~(1 << (2)) ;
  1272  0249  30FB               	movlw	251
  1273  024A  00FF               	movwf	btemp+1
  1274  024B  087F               	movf	btemp+1,w
  1275  024C  1283               	bcf	3,5	;RP0=0, select bank0
  1276  024D  1303               	bcf	3,6	;RP1=0, select bank0
  1277  024E  058C               	andwf	12,f	;volatile
  1278  024F                     i1l87:
  1279  024F  087C               	movf	??_ISR+4,w
  1280  0250  00FF               	movwf	btemp+1
  1281  0251  087B               	movf	??_ISR+3,w
  1282  0252  008A               	movwf	10
  1283  0253  087A               	movf	??_ISR+2,w
  1284  0254  0084               	movwf	4
  1285  0255  0E79               	swapf	(??_ISR+1)^(0+4294967168),w
  1286  0256  0083               	movwf	3
  1287  0257  0EFE               	swapf	btemp,f
  1288  0258  0E7E               	swapf	btemp,w
  1289  0259  0009               	retfie
  1290  025A                     __end_of_ISR:
  1291                           
  1292                           	psect	intentry
  1293  0004                     __pintentry:	
  1294                           ;incstack = 0
  1295                           ; Regs used in _ISR: [wreg-fsr0h+status,2+status,0+btemp+1+pclath+cstack]
  1296                           
  1297  0004                     interrupt_function:
  1298  007E                     saved_w	set	btemp
  1299  0004  00FE               	movwf	btemp
  1300  0005  0E03               	swapf	3,w
  1301  0006  00F9               	movwf	??_ISR+1
  1302  0007  0804               	movf	4,w
  1303  0008  00FA               	movwf	??_ISR+2
  1304  0009  080A               	movf	10,w
  1305  000A  00FB               	movwf	??_ISR+3
  1306  000B  1283               	bcf	3,5	;RP0=0, select bank0
  1307  000C  1303               	bcf	3,6	;RP1=0, select bank0
  1308  000D  087F               	movf	btemp+1,w
  1309  000E  00FC               	movwf	??_ISR+4
  1310  000F  120A  118A  2A37   	ljmp	_ISR
  1311                           
  1312                           	psect	text9
  1313  010A                     __ptext9:	
  1314 ;; *************** function _RTO_vid_StartSchedular *****************
  1315 ;; Defined at:
  1316 ;;		line 49 in file "RTO_Prog.c"
  1317 ;; Parameters:    Size  Location     Type
  1318 ;;		None
  1319 ;; Auto vars:     Size  Location     Type
  1320 ;;  u8_TCB_Count    1    7[COMMON] unsigned char 
  1321 ;; Return value:  Size  Location     Type
  1322 ;;                  1    wreg      void 
  1323 ;; Registers used:
  1324 ;;		wreg, fsr0l, fsr0h, status,2, status,0, btemp+1, pclath, cstack
  1325 ;; Tracked objects:
  1326 ;;		On entry : 0/0
  1327 ;;		On exit  : 0/0
  1328 ;;		Unchanged: 0/0
  1329 ;; Data sizes:     COMMON   BANK0   BANK1   BANK3   BANK2
  1330 ;;      Params:         0       0       0       0       0
  1331 ;;      Locals:         1       0       0       0       0
  1332 ;;      Temps:          4       0       0       0       0
  1333 ;;      Totals:         5       0       0       0       0
  1334 ;;Total ram usage:        5 bytes
  1335 ;; Hardware stack levels used:    1
  1336 ;; Hardware stack levels required when called:    1
  1337 ;; This function calls:
  1338 ;;		_GreenLed_TOG
  1339 ;;		_RedLed_TOG
  1340 ;;		_YellowLed_TOG
  1341 ;;		i1___bmul
  1342 ;; This function is called by:
  1343 ;;		_RTO_Init
  1344 ;;		_ISR
  1345 ;; This function uses a non-reentrant model
  1346 ;;
  1347                           
  1348                           
  1349                           ;psect for function _RTO_vid_StartSchedular
  1350  010A                     _RTO_vid_StartSchedular:
  1351  010A                     i1l1112:	
  1352                           ;incstack = 0
  1353                           ; Regs used in _RTO_vid_StartSchedular: [wreg-fsr0h+status,2+status,0+btemp+1+pclath+cst
      +                          ack]
  1354                           
  1355                           
  1356                           ;RTO_Prog.c: 51:  u8 u8_TCB_Counter =0;
  1357  010A  01F7               	clrf	RTO_vid_StartSchedular@u8_TCB_Counter
  1358                           
  1359                           ;RTO_Prog.c: 52:  for (u8_TCB_Counter = 0 ;u8_TCB_Counter<3 ; u8_TCB_Counter ++ )
  1360  010B  01F7               	clrf	RTO_vid_StartSchedular@u8_TCB_Counter
  1361  010C                     i1l1118:
  1362                           
  1363                           ;RTO_Prog.c: 53:  {;RTO_Prog.c: 54:   if ( (Tasks[u8_TCB_Counter].u16_FirstDelay)== 0)
  1364  010C  3005               	movlw	5
  1365  010D  00FF               	movwf	btemp+1
  1366  010E  087F               	movf	btemp+1,w
  1367  010F  00F0               	movwf	i1___bmul@multiplicand
  1368  0110  0877               	movf	RTO_vid_StartSchedular@u8_TCB_Counter,w
  1369  0111  120A  118A  2287  120A  118A  	fcall	i1___bmul
  1370  0116  3E22               	addlw	(low ((_Tasks| 0+2)))& (0+255)
  1371  0117  0084               	movwf	4
  1372  0118  1383               	bcf	3,7	;select IRP bank0
  1373  0119  0800               	movf	0,w
  1374  011A  00F3               	movwf	??_RTO_vid_StartSchedular
  1375  011B  0A84               	incf	4,f
  1376  011C  0800               	movf	0,w
  1377  011D  00F4               	movwf	??_RTO_vid_StartSchedular+1
  1378  011E  0873               	movf	??_RTO_vid_StartSchedular,w
  1379  011F  0474               	iorwf	??_RTO_vid_StartSchedular+1,w
  1380  0120  1D03               	btfss	3,2
  1381  0121  2923               	goto	u51_21
  1382  0122  2924               	goto	u51_20
  1383  0123                     u51_21:
  1384  0123  2964               	goto	i1l1122
  1385  0124                     u51_20:
  1386  0124                     i1l1120:
  1387                           
  1388                           ;RTO_Prog.c: 55:   {;RTO_Prog.c: 57:    Tasks[u8_TCB_Counter].pFn() ;
  1389  0124  3005               	movlw	5
  1390  0125  00FF               	movwf	btemp+1
  1391  0126  087F               	movf	btemp+1,w
  1392  0127  00F0               	movwf	i1___bmul@multiplicand
  1393  0128  0877               	movf	RTO_vid_StartSchedular@u8_TCB_Counter,w
  1394  0129  120A  118A  2287  120A  118A  	fcall	i1___bmul
  1395  012E  3E24               	addlw	(low ((_Tasks| 0+4)))& (0+255)
  1396  012F  0084               	movwf	4
  1397  0130  1383               	bcf	3,7	;select IRP bank0
  1398  0131  0800               	movf	0,w
  1399  0132  120A  118A  202C  120A  118A  	fcall	i1fptable
  1400                           
  1401                           ;RTO_Prog.c: 61:    Tasks[u8_TCB_Counter].u16_FirstDelay = ( Tasks[u8_TCB_Counter].u16_P
      +                          eriocicity ) -1 ;
  1402  0137  3005               	movlw	5
  1403  0138  00FF               	movwf	btemp+1
  1404  0139  087F               	movf	btemp+1,w
  1405  013A  00F0               	movwf	i1___bmul@multiplicand
  1406  013B  0877               	movf	RTO_vid_StartSchedular@u8_TCB_Counter,w
  1407  013C  120A  118A  2287  120A  118A  	fcall	i1___bmul
  1408  0141  3E20               	addlw	(low (_Tasks| 0))& (0+255)
  1409  0142  0084               	movwf	4
  1410  0143  1383               	bcf	3,7	;select IRP bank0
  1411  0144  0800               	movf	0,w
  1412  0145  00F3               	movwf	??_RTO_vid_StartSchedular
  1413  0146  0A84               	incf	4,f
  1414  0147  0800               	movf	0,w
  1415  0148  00F4               	movwf	??_RTO_vid_StartSchedular+1
  1416  0149  0873               	movf	??_RTO_vid_StartSchedular,w
  1417  014A  3EFF               	addlw	255
  1418  014B  00F5               	movwf	??_RTO_vid_StartSchedular+2
  1419  014C  0874               	movf	??_RTO_vid_StartSchedular+1,w
  1420  014D  1803               	skipnc
  1421  014E  3E01               	addlw	1
  1422  014F  3EFF               	addlw	255
  1423  0150  00F6               	movwf	??_RTO_vid_StartSchedular+3
  1424  0151  3005               	movlw	5
  1425  0152  00FF               	movwf	btemp+1
  1426  0153  087F               	movf	btemp+1,w
  1427  0154  00F0               	movwf	i1___bmul@multiplicand
  1428  0155  0877               	movf	RTO_vid_StartSchedular@u8_TCB_Counter,w
  1429  0156  120A  118A  2287  120A  118A  	fcall	i1___bmul
  1430  015B  3E22               	addlw	(low ((_Tasks| 0+2)))& (0+255)
  1431  015C  0084               	movwf	4
  1432  015D  0875               	movf	??_RTO_vid_StartSchedular+2,w
  1433  015E  1383               	bcf	3,7	;select IRP bank0
  1434  015F  0080               	movwf	0
  1435  0160  0A84               	incf	4,f
  1436  0161  0876               	movf	??_RTO_vid_StartSchedular+3,w
  1437  0162  0080               	movwf	0
  1438                           
  1439                           ;RTO_Prog.c: 64:   }
  1440  0163  2979               	goto	i1l1124
  1441  0164                     i1l1122:
  1442                           
  1443                           ;RTO_Prog.c: 66:   {;RTO_Prog.c: 67:    ( Tasks[u8_TCB_Counter].u16_FirstDelay ) -- ;
  1444  0164  3005               	movlw	5
  1445  0165  00FF               	movwf	btemp+1
  1446  0166  087F               	movf	btemp+1,w
  1447  0167  00F0               	movwf	i1___bmul@multiplicand
  1448  0168  0877               	movf	RTO_vid_StartSchedular@u8_TCB_Counter,w
  1449  0169  120A  118A  2287  120A  118A  	fcall	i1___bmul
  1450  016E  3E22               	addlw	(low ((_Tasks| 0+2)))& (0+255)
  1451  016F  0084               	movwf	4
  1452  0170  3001               	movlw	1
  1453  0171  1383               	bcf	3,7	;select IRP bank0
  1454  0172  0280               	subwf	0,f
  1455  0173  0F84               	incfsz	4,f
  1456  0174  3000               	movlw	0
  1457  0175  1C03               	skipc
  1458  0176  0380               	decf	0,f
  1459  0177  0280               	subwf	0,f
  1460  0178  0384               	decf	4,f
  1461  0179                     i1l1124:
  1462                           
  1463                           ;RTO_Prog.c: 71:  }
  1464  0179  3001               	movlw	1
  1465  017A  00FF               	movwf	btemp+1
  1466  017B  087F               	movf	btemp+1,w
  1467  017C  07F7               	addwf	RTO_vid_StartSchedular@u8_TCB_Counter,f
  1468  017D                     i1l1126:
  1469  017D  3003               	movlw	3
  1470  017E  0277               	subwf	RTO_vid_StartSchedular@u8_TCB_Counter,w
  1471  017F  1C03               	skipc
  1472  0180  2982               	goto	u52_21
  1473  0181  2983               	goto	u52_20
  1474  0182                     u52_21:
  1475  0182  290C               	goto	i1l1118
  1476  0183                     u52_20:
  1477  0183                     i1l106:
  1478  0183  0008               	return
  1479  0184                     __end_of_RTO_vid_StartSchedular:
  1480                           
  1481                           	psect	text10
  1482  0287                     __ptext10:	
  1483 ;; *************** function i1___bmul *****************
  1484 ;; Defined at:
  1485 ;;		line 4 in file "C:\Program Files\Microchip\xc8\v2.20\pic\sources\c90\common\Umul8.c"
  1486 ;; Parameters:    Size  Location     Type
  1487 ;;  multiplier      1    wreg     unsigned char 
  1488 ;;  multiplicand    1    0[COMMON] unsigned char 
  1489 ;; Auto vars:     Size  Location     Type
  1490 ;;  multiplier      1    2[COMMON] unsigned char 
  1491 ;;  product         1    1[COMMON] unsigned char 
  1492 ;; Return value:  Size  Location     Type
  1493 ;;                  1    wreg      unsigned char 
  1494 ;; Registers used:
  1495 ;;		wreg, status,2, status,0, btemp+1
  1496 ;; Tracked objects:
  1497 ;;		On entry : 0/0
  1498 ;;		On exit  : 0/0
  1499 ;;		Unchanged: 0/0
  1500 ;; Data sizes:     COMMON   BANK0   BANK1   BANK3   BANK2
  1501 ;;      Params:         1       0       0       0       0
  1502 ;;      Locals:         2       0       0       0       0
  1503 ;;      Temps:          0       0       0       0       0
  1504 ;;      Totals:         3       0       0       0       0
  1505 ;;Total ram usage:        3 bytes
  1506 ;; Hardware stack levels used:    1
  1507 ;; This function calls:
  1508 ;;		Nothing
  1509 ;; This function is called by:
  1510 ;;		_RTO_vid_StartSchedular
  1511 ;; This function uses a non-reentrant model
  1512 ;;
  1513                           
  1514                           
  1515                           ;psect for function i1___bmul
  1516  0287                     i1___bmul:
  1517                           
  1518                           ;incstack = 0
  1519                           ; Regs used in i1___bmul: [wreg+status,2+status,0+btemp+1]
  1520                           ;i1___bmul@multiplier stored from wreg
  1521  0287  00F2               	movwf	i1___bmul@multiplier
  1522  0288                     i1l1078:
  1523  0288  01F1               	clrf	i1___bmul@product
  1524  0289                     i1l1080:
  1525  0289  1C72               	btfss	i1___bmul@multiplier,0
  1526  028A  2A8C               	goto	u49_21
  1527  028B  2A8D               	goto	u49_20
  1528  028C                     u49_21:
  1529  028C  2A91               	goto	i1l1084
  1530  028D                     u49_20:
  1531  028D                     i1l1082:
  1532  028D  0870               	movf	i1___bmul@multiplicand,w
  1533  028E  00FF               	movwf	btemp+1
  1534  028F  087F               	movf	btemp+1,w
  1535  0290  07F1               	addwf	i1___bmul@product,f
  1536  0291                     i1l1084:
  1537  0291  1003               	clrc
  1538  0292  0DF0               	rlf	i1___bmul@multiplicand,f
  1539  0293                     i1l1086:
  1540  0293  1003               	clrc
  1541  0294  0CF2               	rrf	i1___bmul@multiplier,f
  1542  0295                     i1l1088:
  1543  0295  0872               	movf	i1___bmul@multiplier,w
  1544  0296  1D03               	btfss	3,2
  1545  0297  2A99               	goto	u50_21
  1546  0298  2A9A               	goto	u50_20
  1547  0299                     u50_21:
  1548  0299  2A89               	goto	i1l1080
  1549  029A                     u50_20:
  1550  029A                     i1l1090:
  1551  029A  0871               	movf	i1___bmul@product,w
  1552  029B                     i1l254:
  1553  029B  0008               	return
  1554  029C                     __end_ofi1___bmul:
  1555                           
  1556                           	psect	text11
  1557  02AB                     __ptext11:	
  1558 ;; *************** function _GreenLed_TOG *****************
  1559 ;; Defined at:
  1560 ;;		line 36 in file "program.c"
  1561 ;; Parameters:    Size  Location     Type
  1562 ;;		None
  1563 ;; Auto vars:     Size  Location     Type
  1564 ;;		None
  1565 ;; Return value:  Size  Location     Type
  1566 ;;                  1    wreg      void 
  1567 ;; Registers used:
  1568 ;;		wreg, status,2, status,0, btemp+1
  1569 ;; Tracked objects:
  1570 ;;		On entry : 0/0
  1571 ;;		On exit  : 0/0
  1572 ;;		Unchanged: 0/0
  1573 ;; Data sizes:     COMMON   BANK0   BANK1   BANK3   BANK2
  1574 ;;      Params:         0       0       0       0       0
  1575 ;;      Locals:         0       0       0       0       0
  1576 ;;      Temps:          0       0       0       0       0
  1577 ;;      Totals:         0       0       0       0       0
  1578 ;;Total ram usage:        0 bytes
  1579 ;; Hardware stack levels used:    1
  1580 ;; This function calls:
  1581 ;;		Nothing
  1582 ;; This function is called by:
  1583 ;;		_main
  1584 ;;		_RTO_vid_StartSchedular
  1585 ;; This function uses a non-reentrant model
  1586 ;;
  1587                           
  1588                           
  1589                           ;psect for function _GreenLed_TOG
  1590  02AB                     _GreenLed_TOG:
  1591  02AB                     i1l782:	
  1592                           ;incstack = 0
  1593                           ; Regs used in _GreenLed_TOG: [wreg+status,2+status,0+btemp+1]
  1594                           
  1595                           
  1596                           ;program.c: 38:  ((*((volatile u8*)0x07))) ^= (1 << (1)) ;
  1597  02AB  3002               	movlw	2
  1598  02AC  00FF               	movwf	btemp+1
  1599  02AD  087F               	movf	btemp+1,w
  1600  02AE  1283               	bcf	3,5	;RP0=0, select bank0
  1601  02AF  1303               	bcf	3,6	;RP1=0, select bank0
  1602  02B0  0687               	xorwf	7,f	;volatile
  1603  02B1                     i1l139:
  1604  02B1  0008               	return
  1605  02B2                     __end_of_GreenLed_TOG:
  1606                           
  1607                           	psect	text12
  1608  02B2                     __ptext12:	
  1609 ;; *************** function _RedLed_TOG *****************
  1610 ;; Defined at:
  1611 ;;		line 29 in file "program.c"
  1612 ;; Parameters:    Size  Location     Type
  1613 ;;		None
  1614 ;; Auto vars:     Size  Location     Type
  1615 ;;		None
  1616 ;; Return value:  Size  Location     Type
  1617 ;;                  1    wreg      void 
  1618 ;; Registers used:
  1619 ;;		wreg, status,2, status,0, btemp+1
  1620 ;; Tracked objects:
  1621 ;;		On entry : 0/0
  1622 ;;		On exit  : 0/0
  1623 ;;		Unchanged: 0/0
  1624 ;; Data sizes:     COMMON   BANK0   BANK1   BANK3   BANK2
  1625 ;;      Params:         0       0       0       0       0
  1626 ;;      Locals:         0       0       0       0       0
  1627 ;;      Temps:          0       0       0       0       0
  1628 ;;      Totals:         0       0       0       0       0
  1629 ;;Total ram usage:        0 bytes
  1630 ;; Hardware stack levels used:    1
  1631 ;; This function calls:
  1632 ;;		Nothing
  1633 ;; This function is called by:
  1634 ;;		_main
  1635 ;;		_RTO_vid_StartSchedular
  1636 ;; This function uses a non-reentrant model
  1637 ;;
  1638                           
  1639                           
  1640                           ;psect for function _RedLed_TOG
  1641  02B2                     _RedLed_TOG:
  1642  02B2                     i1l780:	
  1643                           ;incstack = 0
  1644                           ; Regs used in _RedLed_TOG: [wreg+status,2+status,0+btemp+1]
  1645                           
  1646                           
  1647                           ;program.c: 31:  ((*((volatile u8*)0x07))) ^= (1 << (0)) ;
  1648  02B2  3001               	movlw	1
  1649  02B3  00FF               	movwf	btemp+1
  1650  02B4  087F               	movf	btemp+1,w
  1651  02B5  1283               	bcf	3,5	;RP0=0, select bank0
  1652  02B6  1303               	bcf	3,6	;RP1=0, select bank0
  1653  02B7  0687               	xorwf	7,f	;volatile
  1654  02B8                     i1l136:
  1655  02B8  0008               	return
  1656  02B9                     __end_of_RedLed_TOG:
  1657                           
  1658                           	psect	text13
  1659  02B9                     __ptext13:	
  1660 ;; *************** function _YellowLed_TOG *****************
  1661 ;; Defined at:
  1662 ;;		line 44 in file "program.c"
  1663 ;; Parameters:    Size  Location     Type
  1664 ;;		None
  1665 ;; Auto vars:     Size  Location     Type
  1666 ;;		None
  1667 ;; Return value:  Size  Location     Type
  1668 ;;                  1    wreg      void 
  1669 ;; Registers used:
  1670 ;;		wreg, status,2, status,0, btemp+1
  1671 ;; Tracked objects:
  1672 ;;		On entry : 0/0
  1673 ;;		On exit  : 0/0
  1674 ;;		Unchanged: 0/0
  1675 ;; Data sizes:     COMMON   BANK0   BANK1   BANK3   BANK2
  1676 ;;      Params:         0       0       0       0       0
  1677 ;;      Locals:         0       0       0       0       0
  1678 ;;      Temps:          0       0       0       0       0
  1679 ;;      Totals:         0       0       0       0       0
  1680 ;;Total ram usage:        0 bytes
  1681 ;; Hardware stack levels used:    1
  1682 ;; This function calls:
  1683 ;;		Nothing
  1684 ;; This function is called by:
  1685 ;;		_main
  1686 ;;		_RTO_vid_StartSchedular
  1687 ;; This function uses a non-reentrant model
  1688 ;;
  1689                           
  1690                           
  1691                           ;psect for function _YellowLed_TOG
  1692  02B9                     _YellowLed_TOG:
  1693  02B9                     i1l784:	
  1694                           ;incstack = 0
  1695                           ; Regs used in _YellowLed_TOG: [wreg+status,2+status,0+btemp+1]
  1696                           
  1697                           
  1698                           ;program.c: 46:  ((*((volatile u8*)0x07))) ^= (1 << (2)) ;
  1699  02B9  3004               	movlw	4
  1700  02BA  00FF               	movwf	btemp+1
  1701  02BB  087F               	movf	btemp+1,w
  1702  02BC  1283               	bcf	3,5	;RP0=0, select bank0
  1703  02BD  1303               	bcf	3,6	;RP1=0, select bank0
  1704  02BE  0687               	xorwf	7,f	;volatile
  1705  02BF                     i1l142:
  1706  02BF  0008               	return
  1707  02C0                     __end_of_YellowLed_TOG:
  1708  0008                     
  1709                           	psect	functab
  1710  002B                     __pfunctab:
  1711  002B                     fptable:
  1712  002B  282B               	goto	fptable	;no entries
  1713  002C                     __i1fptable:
  1714  002C                     i1fptable:
  1715  002C  00FF               	movwf	(btemp+1)& (0+127)
  1716  002D  3000               	movlw	high i1fptable
  1717  002E  008A               	movwf	10
  1718  002F  087F               	movf	(btemp+1)& (0+127),w
  1719  0030  0782               	addwf	2,f
  1720  0031                     i1fpbase:
  1721  0031  2831               	goto	i1fpbase	; Call via a null pointer and you will get stuck here.
  1722  0032                     fp__YellowLed_TOG:
  1723  0032  120A  118A  2AB9   	ljmp	_YellowLed_TOG
  1724  0035                     fp__RedLed_TOG:
  1725  0035  120A  118A  2AB2   	ljmp	_RedLed_TOG
  1726  0038                     fp__GreenLed_TOG:
  1727  0038  120A  118A  2AAB   	ljmp	_GreenLed_TOG
  1728  003B                     fp__RTO_vid_StartSchedular:
  1729  003B  120A  118A  290A   	ljmp	_RTO_vid_StartSchedular
  1730  003E                     __end_of__i1fptable:
  1731  007E                     btemp	set	126	;btemp
  1732  007E                     wtemp0	set	126

Data Sizes:
    Strings     0
    Constant    0
    Data        0
    BSS         16
    Persistent  0
    Stack       0

Auto Spaces:
    Space          Size  Autos    Used
    COMMON           14     13      14
    BANK0            80      9      24
    BANK1            80      0       0
    BANK3            96      0       0
    BANK2            96      0       0

Pointer List with Targets:

    RTO_vid_CreateTask@copy_pFn	PTR FTN()void  size(1) Largest target is 1
		 -> YellowLed_TOG(), GreenLed_TOG(), RedLed_TOG(), 

    S70$pFn	PTR FTN()void  size(1) Largest target is 1
		 -> YellowLed_TOG(), GreenLed_TOG(), RedLed_TOG(), 

    Tasks.pFn	PTR FTN()void  size(1) Largest target is 1
		 -> YellowLed_TOG(), GreenLed_TOG(), RedLed_TOG(), 

    Timer_SetCallBack@local_pFn	PTR FTN()void  size(1) Largest target is 1
		 -> RTO_vid_StartSchedular(), 

    Global_pFn	PTR FTN()void  size(1) Largest target is 1
		 -> Absolute function(), RTO_vid_StartSchedular(), 


Critical Paths under _main in COMMON

    None.

Critical Paths under _ISR in COMMON

    _ISR->_RTO_vid_StartSchedular
    _RTO_vid_StartSchedular->i1___bmul

Critical Paths under _main in BANK0

    _main->_RTO_vid_CreateTask
    _vid_SystemInit->_DIO_SetPinDirection
    _RTO_vid_CreateTask->___bmul
    _RTO_Init->_Timer_SetCallBack

Critical Paths under _ISR in BANK0

    None.

Critical Paths under _main in BANK1

    None.

Critical Paths under _ISR in BANK1

    None.

Critical Paths under _main in BANK3

    None.

Critical Paths under _ISR in BANK3

    None.

Critical Paths under _main in BANK2

    None.

Critical Paths under _ISR in BANK2

    None.

Call Graph Tables:

 ---------------------------------------------------------------------------------
 (Depth) Function   	        Calls       Base Space   Used Autos Params    Refs
 ---------------------------------------------------------------------------------
 (0) _main                                                 0     0      0    1807
                           _RTO_Init
                 _RTO_vid_CreateTask
                   _Timer1_Init_Comp
                     _vid_SystemInit
 ---------------------------------------------------------------------------------
 (1) _vid_SystemInit                                       0     0      0     764
                _DIO_SetPinDirection
 ---------------------------------------------------------------------------------
 (2) _DIO_SetPinDirection                                  5     3      2     764
                                              0 BANK0      5     3      2
 ---------------------------------------------------------------------------------
 (1) _Timer1_Init_Comp                                     0     0      0       0
 ---------------------------------------------------------------------------------
 (1) _RTO_vid_CreateTask                                   6     1      5    1021
                                              3 BANK0      6     1      5
                             ___bmul
 ---------------------------------------------------------------------------------
 (2) ___bmul                                               3     2      1     205
                                              0 BANK0      3     2      1
 ---------------------------------------------------------------------------------
 (1) _RTO_Init                                             0     0      0      22
                  _Timer_SetCallBack
 ---------------------------------------------------------------------------------
 (2) _Timer_SetCallBack                                    1     1      0      22
                                              0 BANK0      1     1      0
 ---------------------------------------------------------------------------------
 Estimated maximum stack depth 2
 ---------------------------------------------------------------------------------
 (Depth) Function   	        Calls       Base Space   Used Autos Params    Refs
 ---------------------------------------------------------------------------------
 (3) _ISR                                                  5     5      0     320
                                              8 COMMON     5     5      0
                   Absolute function *
             _RTO_vid_StartSchedular *
 ---------------------------------------------------------------------------------
 (4) _RTO_vid_StartSchedular                               5     5      0     320
                                              3 COMMON     5     5      0
                       _GreenLed_TOG *
                         _RedLed_TOG *
                      _YellowLed_TOG *
                           i1___bmul
 ---------------------------------------------------------------------------------
 (5) i1___bmul                                             3     2      1     163
                                              0 COMMON     3     2      1
 ---------------------------------------------------------------------------------
 (5) _YellowLed_TOG                                        0     0      0       0
 ---------------------------------------------------------------------------------
 (5) _RedLed_TOG                                           0     0      0       0
 ---------------------------------------------------------------------------------
 (5) _GreenLed_TOG                                         0     0      0       0
 ---------------------------------------------------------------------------------
 (4) Absolute function(Fake)                               0     0      0       0
 ---------------------------------------------------------------------------------
 Estimated maximum stack depth 5
 ---------------------------------------------------------------------------------

 Call Graph Graphs:

 _main (ROOT)
   _RTO_Init
     _Timer_SetCallBack
   _RTO_vid_CreateTask
     ___bmul
   _Timer1_Init_Comp
   _vid_SystemInit
     _DIO_SetPinDirection

 _ISR (ROOT)
   Absolute function(Fake) *
   _RTO_vid_StartSchedular *
     _GreenLed_TOG *
     _RedLed_TOG *
     _YellowLed_TOG *
     i1___bmul *

 Address spaces:
Name               Size   Autos  Total    Cost      Usage
BITCOMMON            E      0       0       0        0.0%
EEDATA             100      0       0       0        0.0%
NULL                 0      0       0       0        0.0%
CODE                 0      0       0       0        0.0%
COMMON               E      D       E       1      100.0%
BITSFR0              0      0       0       1        0.0%
SFR0                 0      0       0       1        0.0%
BITSFR1              0      0       0       2        0.0%
SFR1                 0      0       0       2        0.0%
STACK                0      0       0       2        0.0%
ABS                  0      0      26       3        0.0%
BITBANK0            50      0       0       4        0.0%
BITSFR3              0      0       0       4        0.0%
SFR3                 0      0       0       4        0.0%
BANK0               50      9      18       5       30.0%
BITSFR2              0      0       0       5        0.0%
SFR2                 0      0       0       5        0.0%
BITBANK1            50      0       0       6        0.0%
BANK1               50      0       0       7        0.0%
BITBANK3            60      0       0       8        0.0%
BANK3               60      0       0       9        0.0%
BITBANK2            60      0       0      10        0.0%
BANK2               60      0       0      11        0.0%
DATA                 0      0      26      12        0.0%


Microchip Technology PIC Macro Assembler V2.20 build 20200408173844 
Symbol Table                                                                                   Sat Jul 11 08:26:07 2020

                                   pc 0002                        ___bmul@product 0030  
                                  l11 0109                                    l21 0109  
                                  l81 02A3                                    l78 0286  
                                  l96 02AA                                    l99 0210  
           __end_of_Timer_SetCallBack 02A4                        ?_YellowLed_TOG 0070  
                                 l133 0236                                   l125 01CE  
                                 l126 01CE                                   l254 0270  
                                 u420 00B2                                   u404 007B  
                                 u421 00B1                                   u405 0079  
                                 u414 008C                                   u350 0047  
                                 u415 008A                                   u351 0046  
                                 u360 004D                                   u361 004C  
                                 u434 00B9                                   u370 0052  
                                 u435 00B7                                   u371 0051  
                                 u444 00C9                                   _ISR 0237  
                                 u445 00C7                                   u470 0262  
                                 u454 00D9                                   u471 0261  
                                 u455 00D7                                   u480 026F  
                                 u464 00E9                                   u384 0059  
                                 u481 026E                                   u465 00E7  
                                 u385 0057                                   u394 006A  
                                 u395 0068                                   fsr0 0004  
                                 indf 0000                                  ?_ISR 0070  
                                l1100 027D                                  l1020 004D  
                                l1110 01D5                                  l1102 0281  
                                l1030 0086                                  l1104 0284  
                                l1040 00B3                                  l1024 0053  
                                l1016 0041                                  l1106 0285  
                                l1042 00C3                                  l1050 00F3  
                                l1026 0064                                  l1034 0097  
                                l1018 0047                                  l1060 029F  
                                l1108 02A4                                  l1044 00D3  
                                l1028 0075                                  l1036 00AD  
                                l1140 018E                                  l1070 0268  
                                l1062 025D                                  l1046 00E3  
                                l1142 01A1                                  l1072 026A  
                                l1064 025E                                  l1128 0211  
                                l1144 01B5                                  l1136 0184  
                                l1074 026F                                  l1066 0262  
                                l1138 0189                                  l1068 0266  
                                l1094 0271                                  l1096 0275  
                                l1098 0279                                  l1186 009F  
                                l1188 00FB                                  i1l87 024F  
                                _main 0184                                  btemp 007E  
                      ??_GreenLed_TOG 0070                                  start 0012  
                   ___bmul@multiplier 0031                                 ??_ISR 0078  
                               ?_main 0070                                 i1l106 0183  
                               i1l142 02BF                                 i1l136 02B8  
                               i1l139 02B1                                 i1l254 029B  
                               i1l780 02B2                                 i1l782 02AB  
                               i1l784 02B9                                 u50_20 029A  
                               u50_21 0299                                 u51_20 0124  
                               u51_21 0123                                 u52_20 0183  
                               u52_21 0182                                 u53_25 023A  
                               u54_20 0243                                 u54_21 0242  
                               u49_20 028D                                 u49_21 028C  
                               _Tasks 0020            Timer_SetCallBack@local_pFn 002F  
                               fpbase 0000                            _Global_pFn 007D  
                    __end_ofi1___bmul 029C                                 pclath 000A  
                    __end_of_RTO_Init 02AB                                 status 0003  
                               wtemp0 007E                            _RedLed_TOG 02B2  
                     __initialization 0015                          __end_of_main 01D2  
      DIO_SetPinDirection@u8PinIdCopy 002F            __end_of_RTO_vid_CreateTask 0211  
                     ??_YellowLed_TOG 0070            __size_of_Timer_SetCallBack 0008  
                              ??_main 0038              ??_RTO_vid_StartSchedular 0073  
                              i1l1120 0124                                i1l1112 010A  
                              i1l1122 0164                                i1l1130 0237  
                              i1l1124 0179                                i1l1132 0243  
                              i1l1126 017D                                i1l1118 010C  
                              i1l1134 0249                                i1l1080 0289  
                              i1l1090 029A                                i1l1082 028D  
                              i1l1084 0291                                i1l1086 0293  
                              i1l1078 0288                                i1l1088 0295  
                          __i1fptable 002C          __size_of_DIO_SetPinDirection 00CC  
                              ___bmul 025A                     ?_Timer1_Init_Comp 0070  
                              fptable 002B                    ??_Timer1_Init_Comp 002F  
                              fptotal 0000                  __end_of_GreenLed_TOG 02B2  
                              saved_w 007E               __end_of__initialization 0027  
                         ?_RedLed_TOG 0070                   ___bmul@multiplicand 002F  
                      __pcstackCOMMON 0070                             ?i1___bmul 0070  
                           ?_RTO_Init 0070               __size_of_vid_SystemInit 0026  
                    i1___bmul@product 0071                            __pbssBANK0 0020  
     __size_of_RTO_vid_StartSchedular 007A  RTO_vid_CreateTask@copy_u16FirstDelay 0034  
                          __pmaintext 0184                               ?___bmul 002F  
                          __pintentry 0004                            ??i1___bmul 0071  
                          ??_RTO_Init 0030                   __size_of_RedLed_TOG 0007  
                             i1fpbase 0031                       __size_of___bmul 0017  
              _RTO_vid_StartSchedular 010A                 __size_of_GreenLed_TOG 0007  
                 _DIO_SetPinDirection 003E                               __ptext1 0211  
                             __ptext2 003E                               __ptext3 0271  
                             __ptext4 01D2                               __ptext5 025A  
                             __ptext6 02A4                               __ptext7 029C  
                             __ptext8 0237                               __ptext9 010A  
                 __size_of__i1fptable 0012                          __size_of_ISR 0023  
RTO_vid_CreateTask@copy_u16Priodicity 0032                   i1___bmul@multiplier 0072  
                  _RTO_vid_CreateTask 01D2                  end_of_initialization 0027  
                ?_DIO_SetPinDirection 002F                   ?_RTO_vid_CreateTask 0032  
                        _GreenLed_TOG 02AB                  ??_RTO_vid_CreateTask 0037  
               __end_of_YellowLed_TOG 02C0                        _vid_SystemInit 0211  
               ??_DIO_SetPinDirection 0031             __size_of_Timer1_Init_Comp 0016  
RTO_vid_StartSchedular@u8_TCB_Counter 0077                          ??_RedLed_TOG 0070  
                      __end_of___bmul 0271                __end_of_vid_SystemInit 0237  
                   __size_ofi1___bmul 0015                   start_initialization 0015  
                   __size_of_RTO_Init 0007                           __end_of_ISR 025A  
                  __end_of_RedLed_TOG 02B9            RTO_vid_CreateTask@copy_pFn 0036  
                            ??___bmul 0030             fp__RTO_vid_StartSchedular 003B  
                  __end_of__i1fptable 003E                       ?_vid_SystemInit 0070  
   RTO_vid_CreateTask@copy_u8Priority 0037                           __pbssCOMMON 007D  
                           ___latbits 0002                         __pcstackBANK0 002F  
             ?_RTO_vid_StartSchedular 0070                             __pfunctab 002B  
                    _Timer1_Init_Comp 0271                     interrupt_function 0004  
      __end_of_RTO_vid_StartSchedular 0184                 i1___bmul@multiplicand 0070  
                       fp__RedLed_TOG 0035                              i1___bmul 0287  
                            _RTO_Init 02A4                              i1fptable 002C  
                            i1fptotal 0008           __size_of_RTO_vid_CreateTask 003F  
         __end_of_DIO_SetPinDirection 010A                              __ptext10 0287  
                            __ptext11 02AB                              __ptext12 02B2  
                            __ptext13 02B9                         __size_of_main 004E  
              __size_of_YellowLed_TOG 0007                      fp__YellowLed_TOG 0032  
                    ??_vid_SystemInit 0034       DIO_SetPinDirection@u8PinDirCopy 0030  
                            intlevel1 002B                       fp__GreenLed_TOG 0038  
     DIO_SetPinDirection@u8PortIdCopy 0033              __end_of_Timer1_Init_Comp 0287  
                   _Timer_SetCallBack 029C                         _YellowLed_TOG 02B9  
                  ?_Timer_SetCallBack 0070                   ??_Timer_SetCallBack 002F  
                       ?_GreenLed_TOG 0070  
